target datalayout = "e-m:e-p270:32:32-p271:32:32-p272:64:64-i64:64-i128:128-f80:128-n8:16:32:64-S128"
target triple = "x86_64-pc-linux-gnu"

%struct.expert_field = type { i32, i32 }
%struct.spice_conversation_t = type { i32, i32, i32, i32, i32, i32, i32, i16, i8, i8, i8, i8 }

@hf_link_server = internal global i32 0, align 4
@hf_spice_magic = internal global i32 0, align 4
@hf_major_version = internal global i32 0, align 4
@hf_minor_version = internal global i32 0, align 4
@hf_message_size = internal global i32 0, align 4
@hf_num_common_caps = internal global i32 0, align 4
@hf_num_channel_caps = internal global i32 0, align 4
@hf_caps_offset = internal global i32 0, align 4
@hf_error_code = internal global i32 0, align 4
@hf_spice_x509_subjectpublickeyinfo = internal global i32 0, align 4
@.str.505 = private unnamed_addr constant [35 x i8] c"X.509 SubjectPublicKeyInfo (ASN.1)\00", align 1
@ett_link_server = internal global i32 0, align 4
@ett_link_caps = internal global i32 0, align 4
@ei_spice_common_cap_unknown = internal global %struct.expert_field zeroinitializer, align 4
@dissect_spice_common_capabilities.caps = internal constant [5 x ptr] [ptr @hf_common_cap_auth_select, ptr @hf_common_cap_auth_spice, ptr @hf_common_cap_auth_sasl, ptr @hf_common_cap_mini_header, ptr null], align 16
@.str.751 = private unnamed_addr constant [31 x i8] c"Common Capabilities (%d bytes)\00", align 1
@.str.752 = private unnamed_addr constant [32 x i8] c"Channel Capabilities (%d bytes)\00", align 1

; Function Attrs: null_pointer_is_valid sspstrong uwtable
define internal void @dissect_spice_common_capabilities(ptr noundef %0, ptr noundef %1, ptr noundef %2, i32 noundef %3, i32 noundef %4, ptr noundef %5, i1 noundef zeroext %6) #0 {
  %8 = alloca ptr, align 8
  %9 = alloca ptr, align 8
  %10 = alloca ptr, align 8
  %11 = alloca i32, align 4
  %12 = alloca i32, align 4
  %13 = alloca ptr, align 8
  %14 = alloca i8, align 1
  %15 = alloca i32, align 4
  %16 = alloca i32, align 4
  store ptr %0, ptr %8, align 8
  store ptr %1, ptr %9, align 8
  store ptr %2, ptr %10, align 8
  store i32 %3, ptr %11, align 4
  store i32 %4, ptr %12, align 4
  store ptr %5, ptr %13, align 8
  %17 = zext i1 %6 to i8
  store i8 %17, ptr %14, align 1
  call void @llvm.lifetime.start.p0(i64 4, ptr %15) #6
  call void @llvm.lifetime.start.p0(i64 4, ptr %16) #6
  store i32 0, ptr %15, align 4
  br label %18

18:                                               ; preds = %67, %7
  %19 = load i32, ptr %15, align 4
  %20 = load i32, ptr %12, align 4
  %21 = icmp ult i32 %19, %20
  br i1 %21, label %22, label %70

22:                                               ; preds = %18
  %23 = load ptr, ptr %8, align 8
  %24 = load i32, ptr %11, align 4
  %25 = call i32 @tvb_get_letohl(ptr noundef %23, i32 noundef %24)
  store i32 %25, ptr %16, align 4
  %26 = load i32, ptr %15, align 4
  switch i32 %26, label %58 [
    i32 0, label %27
  ]

27:                                               ; preds = %22
  %28 = load i8, ptr %14, align 1, !range !6, !noundef !7
  %29 = trunc i8 %28 to i1
  br i1 %29, label %30, label %34

30:                                               ; preds = %27
  %31 = load i32, ptr %16, align 4
  %32 = load ptr, ptr %13, align 8
  %33 = getelementptr inbounds nuw %struct.spice_conversation_t, ptr %32, i32 0, i32 3
  store i32 %31, ptr %33, align 4
  br label %38

34:                                               ; preds = %27
  %35 = load i32, ptr %16, align 4
  %36 = load ptr, ptr %13, align 8
  %37 = getelementptr inbounds nuw %struct.spice_conversation_t, ptr %36, i32 0, i32 4
  store i32 %35, ptr %37, align 4
  br label %38

38:                                               ; preds = %34, %30
  %39 = load ptr, ptr %10, align 8
  %40 = load ptr, ptr %8, align 8
  %41 = load i32, ptr %11, align 4
  call void @proto_tree_add_bitmask_list(ptr noundef %39, ptr noundef %40, i32 noundef %41, i32 noundef 4, ptr noundef @dissect_spice_common_capabilities.caps, i32 noundef -2147483648)
  %42 = load i32, ptr %16, align 4
  %43 = and i32 %42, 8
  %44 = icmp ne i32 %43, 0
  br i1 %44, label %45, label %55

45:                                               ; preds = %38
  %46 = load i8, ptr %14, align 1, !range !6, !noundef !7
  %47 = trunc i8 %46 to i1
  br i1 %47, label %48, label %51

48:                                               ; preds = %45
  %49 = load ptr, ptr %13, align 8
  %50 = getelementptr inbounds nuw %struct.spice_conversation_t, ptr %49, i32 0, i32 10
  store i8 1, ptr %50, align 4
  br label %54

51:                                               ; preds = %45
  %52 = load ptr, ptr %13, align 8
  %53 = getelementptr inbounds nuw %struct.spice_conversation_t, ptr %52, i32 0, i32 11
  store i8 1, ptr %53, align 1
  br label %54

54:                                               ; preds = %51, %48
  br label %55

55:                                               ; preds = %54, %38
  %56 = load i32, ptr %11, align 4
  %57 = add i32 %56, 4
  store i32 %57, ptr %11, align 4
  br label %66

58:                                               ; preds = %22
  %59 = load ptr, ptr %10, align 8
  %60 = load ptr, ptr %9, align 8
  %61 = load ptr, ptr %8, align 8
  %62 = load i32, ptr %11, align 4
  %63 = call ptr @proto_tree_add_expert(ptr noundef %59, ptr noundef %60, ptr noundef @ei_spice_common_cap_unknown, ptr noundef %61, i32 noundef %62, i32 noundef 4)
  %64 = load i32, ptr %11, align 4
  %65 = add i32 %64, 4
  store i32 %65, ptr %11, align 4
  br label %66

66:                                               ; preds = %58, %55
  br label %67

67:                                               ; preds = %66
  %68 = load i32, ptr %15, align 4
  %69 = add i32 %68, 1
  store i32 %69, ptr %15, align 4
  br label %18, !llvm.loop !14

70:                                               ; preds = %18
  call void @llvm.lifetime.end.p0(i64 4, ptr %16) #6
  call void @llvm.lifetime.end.p0(i64 4, ptr %15) #6
  ret void
}

; Function Attrs: null_pointer_is_valid sspstrong uwtable
define internal void @dissect_spice_link_common_header(ptr noundef %0, ptr noundef %1) #0 {
  %3 = alloca ptr, align 8
  %4 = alloca ptr, align 8
  store ptr %0, ptr %3, align 8
  store ptr %1, ptr %4, align 8
  %5 = load ptr, ptr %4, align 8
  %6 = icmp ne ptr %5, null
  br i1 %6, label %7, label %24

7:                                                ; preds = %2
  %8 = load ptr, ptr %4, align 8
  %9 = load i32, ptr @hf_spice_magic, align 4
  %10 = load ptr, ptr %3, align 8
  %11 = call ptr @proto_tree_add_item(ptr noundef %8, i32 noundef %9, ptr noundef %10, i32 noundef 0, i32 noundef 4, i32 noundef 0)
  %12 = load ptr, ptr %4, align 8
  %13 = load i32, ptr @hf_major_version, align 4
  %14 = load ptr, ptr %3, align 8
  %15 = call ptr @proto_tree_add_item(ptr noundef %12, i32 noundef %13, ptr noundef %14, i32 noundef 4, i32 noundef 4, i32 noundef -2147483648)
  %16 = load ptr, ptr %4, align 8
  %17 = load i32, ptr @hf_minor_version, align 4
  %18 = load ptr, ptr %3, align 8
  %19 = call ptr @proto_tree_add_item(ptr noundef %16, i32 noundef %17, ptr noundef %18, i32 noundef 8, i32 noundef 4, i32 noundef -2147483648)
  %20 = load ptr, ptr %4, align 8
  %21 = load i32, ptr @hf_message_size, align 4
  %22 = load ptr, ptr %3, align 8
  %23 = call ptr @proto_tree_add_item(ptr noundef %20, i32 noundef %21, ptr noundef %22, i32 noundef 12, i32 noundef 4, i32 noundef -2147483648)
  br label %24

24:                                               ; preds = %7, %2
  ret void
}

; Function Attrs: null_pointer_is_valid sspstrong uwtable
define internal void @dissect_spice_link_server_pdu(ptr noundef %0, ptr noundef %1, ptr noundef %2, ptr noundef %3) #0 {
  %5 = alloca ptr, align 8
  %6 = alloca ptr, align 8
  %7 = alloca ptr, align 8
  %8 = alloca ptr, align 8
  %9 = alloca i32, align 4
  %10 = alloca i32, align 4
  %11 = alloca i32, align 4
  %12 = alloca ptr, align 8
  %13 = alloca ptr, align 8
  %14 = alloca ptr, align 8
  store ptr %0, ptr %5, align 8
  store ptr %1, ptr %6, align 8
  store ptr %2, ptr %7, align 8
  store ptr %3, ptr %8, align 8
  call void @llvm.lifetime.start.p0(i64 4, ptr %9) #6
  call void @llvm.lifetime.start.p0(i64 4, ptr %10) #6
  call void @llvm.lifetime.start.p0(i64 4, ptr %11) #6
  call void @llvm.lifetime.start.p0(i64 8, ptr %12) #6
  store ptr null, ptr %12, align 8
  call void @llvm.lifetime.start.p0(i64 8, ptr %13) #6
  store ptr null, ptr %13, align 8
  call void @llvm.lifetime.start.p0(i64 8, ptr %14) #6
  store ptr null, ptr %14, align 8
  %15 = load ptr, ptr %7, align 8
  %16 = icmp ne ptr %15, null
  br i1 %16, label %17, label %27

17:                                               ; preds = %4
  %18 = load ptr, ptr %7, align 8
  %19 = load i32, ptr @hf_link_server, align 4
  %20 = load ptr, ptr %5, align 8
  %21 = call ptr @proto_tree_add_item(ptr noundef %18, i32 noundef %19, ptr noundef %20, i32 noundef 0, i32 noundef 16, i32 noundef 0)
  store ptr %21, ptr %12, align 8
  %22 = load ptr, ptr %12, align 8
  %23 = load i32, ptr @ett_link_server, align 4
  %24 = call ptr @proto_item_add_subtree(ptr noundef %22, i32 noundef %23)
  store ptr %24, ptr %13, align 8
  %25 = load ptr, ptr %5, align 8
  %26 = load ptr, ptr %13, align 8
  call void @dissect_spice_link_common_header(ptr noundef %25, ptr noundef %26)
  br label %27

27:                                               ; preds = %17, %4
  store i32 16, ptr %9, align 4
  %28 = load ptr, ptr %7, align 8
  %29 = icmp ne ptr %28, null
  br i1 %29, label %30, label %63

30:                                               ; preds = %27
  %31 = load ptr, ptr %7, align 8
  %32 = load i32, ptr @hf_error_code, align 4
  %33 = load ptr, ptr %5, align 8
  %34 = load i32, ptr %9, align 4
  %35 = call ptr @proto_tree_add_item(ptr noundef %31, i32 noundef %32, ptr noundef %33, i32 noundef %34, i32 noundef 4, i32 noundef -2147483648)
  %36 = load ptr, ptr %7, align 8
  %37 = load i32, ptr @hf_spice_x509_subjectpublickeyinfo, align 4
  %38 = load ptr, ptr %5, align 8
  %39 = load i32, ptr %9, align 4
  %40 = add i32 %39, 4
  %41 = call ptr (ptr, i32, ptr, i32, i32, ptr, ptr, ...) @proto_tree_add_bytes_format(ptr noundef %36, i32 noundef %37, ptr noundef %38, i32 noundef %40, i32 noundef 162, ptr noundef null, ptr noundef @.str.505)
  %42 = load ptr, ptr %7, align 8
  %43 = load i32, ptr @hf_num_common_caps, align 4
  %44 = load ptr, ptr %5, align 8
  %45 = load i32, ptr %9, align 4
  %46 = add i32 %45, 4
  %47 = add i32 %46, 162
  %48 = call ptr @proto_tree_add_item(ptr noundef %42, i32 noundef %43, ptr noundef %44, i32 noundef %47, i32 noundef 4, i32 noundef -2147483648)
  %49 = load ptr, ptr %7, align 8
  %50 = load i32, ptr @hf_num_channel_caps, align 4
  %51 = load ptr, ptr %5, align 8
  %52 = load i32, ptr %9, align 4
  %53 = add i32 %52, 8
  %54 = add i32 %53, 162
  %55 = call ptr @proto_tree_add_item(ptr noundef %49, i32 noundef %50, ptr noundef %51, i32 noundef %54, i32 noundef 4, i32 noundef -2147483648)
  %56 = load ptr, ptr %7, align 8
  %57 = load i32, ptr @hf_caps_offset, align 4
  %58 = load ptr, ptr %5, align 8
  %59 = load i32, ptr %9, align 4
  %60 = add i32 %59, 12
  %61 = add i32 %60, 162
  %62 = call ptr @proto_tree_add_item(ptr noundef %56, i32 noundef %57, ptr noundef %58, i32 noundef %61, i32 noundef 4, i32 noundef -2147483648)
  br label %63

63:                                               ; preds = %30, %27
  %64 = load ptr, ptr %5, align 8
  %65 = load i32, ptr %9, align 4
  %66 = add i32 %65, 4
  %67 = add i32 %66, 162
  %68 = call i32 @tvb_get_letohl(ptr noundef %64, i32 noundef %67)
  store i32 %68, ptr %10, align 4
  %69 = load ptr, ptr %5, align 8
  %70 = load i32, ptr %9, align 4
  %71 = add i32 %70, 8
  %72 = add i32 %71, 162
  %73 = call i32 @tvb_get_letohl(ptr noundef %69, i32 noundef %72)
  store i32 %73, ptr %11, align 4
  %74 = load i32, ptr %9, align 4
  %75 = add i32 %74, 178
  store i32 %75, ptr %9, align 4
  %76 = load i32, ptr %10, align 4
  %77 = icmp ugt i32 %76, 0
  br i1 %77, label %78, label %98

78:                                               ; preds = %63
  %79 = load ptr, ptr %7, align 8
  %80 = load ptr, ptr %5, align 8
  %81 = load i32, ptr %9, align 4
  %82 = load i32, ptr %10, align 4
  %83 = mul i32 %82, 4
  %84 = load i32, ptr @ett_link_caps, align 4
  %85 = load i32, ptr %10, align 4
  %86 = mul i32 %85, 4
  %87 = call ptr (ptr, ptr, i32, i32, i32, ptr, ptr, ...) @proto_tree_add_subtree_format(ptr noundef %79, ptr noundef %80, i32 noundef %81, i32 noundef %83, i32 noundef %84, ptr noundef null, ptr noundef @.str.751, i32 noundef %86)
  store ptr %87, ptr %14, align 8
  %88 = load ptr, ptr %5, align 8
  %89 = load ptr, ptr %6, align 8
  %90 = load ptr, ptr %14, align 8
  %91 = load i32, ptr %9, align 4
  %92 = load i32, ptr %10, align 4
  %93 = load ptr, ptr %8, align 8
  call void @dissect_spice_common_capabilities(ptr noundef %88, ptr noundef %89, ptr noundef %90, i32 noundef %91, i32 noundef %92, ptr noundef %93, i1 noundef zeroext false)
  %94 = load i32, ptr %10, align 4
  %95 = mul i32 %94, 4
  %96 = load i32, ptr %9, align 4
  %97 = add i32 %96, %95
  store i32 %97, ptr %9, align 4
  br label %98

98:                                               ; preds = %78, %63
  %99 = load i32, ptr %11, align 4
  %100 = icmp ugt i32 %99, 0
  br i1 %100, label %101, label %117

101:                                              ; preds = %98
  %102 = load ptr, ptr %7, align 8
  %103 = load ptr, ptr %5, align 8
  %104 = load i32, ptr %9, align 4
  %105 = load i32, ptr %11, align 4
  %106 = mul i32 %105, 4
  %107 = load i32, ptr @ett_link_caps, align 4
  %108 = load i32, ptr %11, align 4
  %109 = mul i32 %108, 4
  %110 = call ptr (ptr, ptr, i32, i32, i32, ptr, ptr, ...) @proto_tree_add_subtree_format(ptr noundef %102, ptr noundef %103, i32 noundef %104, i32 noundef %106, i32 noundef %107, ptr noundef null, ptr noundef @.str.752, i32 noundef %109)
  store ptr %110, ptr %14, align 8
  %111 = load ptr, ptr %5, align 8
  %112 = load ptr, ptr %6, align 8
  %113 = load ptr, ptr %14, align 8
  %114 = load i32, ptr %9, align 4
  %115 = load i32, ptr %11, align 4
  %116 = load ptr, ptr %8, align 8
  call void @dissect_spice_link_capabilities(ptr noundef %111, ptr noundef %112, ptr noundef %113, i32 noundef %114, i32 noundef %115, ptr noundef %116)
  br label %117

117:                                              ; preds = %101, %98
  call void @llvm.lifetime.end.p0(i64 8, ptr %14) #6
  call void @llvm.lifetime.end.p0(i64 8, ptr %13) #6
  call void @llvm.lifetime.end.p0(i64 8, ptr %12) #6
  call void @llvm.lifetime.end.p0(i64 4, ptr %11) #6
  call void @llvm.lifetime.end.p0(i64 4, ptr %10) #6
  call void @llvm.lifetime.end.p0(i64 4, ptr %9) #6
  ret void
}