; Function Attrs: null_pointer_is_valid sspstrong uwtable
define internal fastcc void @dissect_spice_link_server_pdu(ptr noundef %0, ptr noundef %1, ptr noundef %2, ptr noundef captures(none) %3) unnamed_addr #0 {
  %.not = icmp eq ptr %2, null
  br i1 %.not, label %.critedge, label %5

5:                                                ; preds = %4
  %6 = load i32, ptr @hf_link_server, align 4
  %7 = tail call ptr @proto_tree_add_item(ptr noundef nonnull %2, i32 noundef %6, ptr noundef %0, i32 noundef 0, i32 noundef 16, i32 noundef 0)
  %8 = load i32, ptr @ett_link_server, align 4
  %9 = tail call ptr @proto_item_add_subtree(ptr noundef %7, i32 noundef %8)
  %.not.i = icmp eq ptr %9, null
  br i1 %.not.i, label %dissect_spice_link_common_header.exit, label %10

10:                                               ; preds = %5
  %11 = load i32, ptr @hf_spice_magic, align 4
  %12 = tail call ptr @proto_tree_add_item(ptr noundef nonnull %9, i32 noundef %11, ptr noundef %0, i32 noundef 0, i32 noundef 4, i32 noundef 0)
  %13 = load i32, ptr @hf_major_version, align 4
  %14 = tail call ptr @proto_tree_add_item(ptr noundef nonnull %9, i32 noundef %13, ptr noundef %0, i32 noundef 4, i32 noundef 4, i32 noundef -2147483648)
  %15 = load i32, ptr @hf_minor_version, align 4
  %16 = tail call ptr @proto_tree_add_item(ptr noundef nonnull %9, i32 noundef %15, ptr noundef %0, i32 noundef 8, i32 noundef 4, i32 noundef -2147483648)
  %17 = load i32, ptr @hf_message_size, align 4
  %18 = tail call ptr @proto_tree_add_item(ptr noundef nonnull %9, i32 noundef %17, ptr noundef %0, i32 noundef 12, i32 noundef 4, i32 noundef -2147483648)
  br label %dissect_spice_link_common_header.exit

dissect_spice_link_common_header.exit:            ; preds = %5, %10
  %19 = load i32, ptr @hf_error_code, align 4
  %20 = tail call ptr @proto_tree_add_item(ptr noundef nonnull %2, i32 noundef %19, ptr noundef %0, i32 noundef 16, i32 noundef 4, i32 noundef -2147483648)
  %21 = load i32, ptr @hf_spice_x509_subjectpublickeyinfo, align 4
  %22 = tail call ptr (ptr, i32, ptr, i32, i32, ptr, ptr, ...) @proto_tree_add_bytes_format(ptr noundef nonnull %2, i32 noundef %21, ptr noundef %0, i32 noundef 20, i32 noundef 162, ptr noundef null, ptr noundef nonnull @.str.505)
  %23 = load i32, ptr @hf_num_common_caps, align 4
  %24 = tail call ptr @proto_tree_add_item(ptr noundef nonnull %2, i32 noundef %23, ptr noundef %0, i32 noundef 182, i32 noundef 4, i32 noundef -2147483648)
  %25 = load i32, ptr @hf_num_channel_caps, align 4
  %26 = tail call ptr @proto_tree_add_item(ptr noundef nonnull %2, i32 noundef %25, ptr noundef %0, i32 noundef 186, i32 noundef 4, i32 noundef -2147483648)
  %27 = load i32, ptr @hf_caps_offset, align 4
  %28 = tail call ptr @proto_tree_add_item(ptr noundef nonnull %2, i32 noundef %27, ptr noundef %0, i32 noundef 190, i32 noundef 4, i32 noundef -2147483648)
  br label %.critedge

.critedge:                                        ; preds = %4, %dissect_spice_link_common_header.exit
  %29 = tail call i32 @tvb_get_letohl(ptr noundef %0, i32 noundef 182)
  %30 = tail call i32 @tvb_get_letohl(ptr noundef %0, i32 noundef 186)
  %.not55 = icmp eq i32 %29, 0
  br i1 %.not55, label %44, label %31

31:                                               ; preds = %.critedge
  %32 = shl i32 %29, 2
  %33 = load i32, ptr @ett_link_caps, align 4
  %34 = tail call ptr (ptr, ptr, i32, i32, i32, ptr, ptr, ...) @proto_tree_add_subtree_format(ptr noundef %2, ptr noundef %0, i32 noundef 194, i32 noundef %32, i32 noundef %33, ptr noundef null, ptr noundef nonnull @.str.751, i32 noundef %32)
  %35 = getelementptr inbounds nuw i8, ptr %3, i64 16
  %36 = getelementptr inbounds nuw i8, ptr %3, i64 33
  br label %.split.i

.split.i:                                         ; preds = %41, %31
  %.027.i = phi i32 [ %.1.i, %41 ], [ 194, %31 ]
  %.02326.i = phi i32 [ %42, %41 ], [ 0, %31 ]
  %37 = tail call i32 @tvb_get_letohl(ptr noundef %0, i32 noundef %.027.i)
  %cond.i = icmp eq i32 %.02326.i, 0
  br i1 %cond.i, label %.thread.i, label %39

.thread.i:                                        ; preds = %.split.i
  store i32 %37, ptr %35, align 4
  tail call void @proto_tree_add_bitmask_list(ptr noundef %34, ptr noundef %0, i32 noundef %.027.i, i32 noundef 4, ptr noundef nonnull @dissect_spice_common_capabilities.caps, i32 noundef -2147483648)
  %38 = and i32 %37, 8
  %.not24.i = icmp eq i32 %38, 0
  br i1 %.not24.i, label %41, label %.thread25.i

.thread25.i:                                      ; preds = %.thread.i
  store i8 1, ptr %36, align 1
  br label %41

39:                                               ; preds = %.split.i
  %40 = tail call ptr @proto_tree_add_expert(ptr noundef %34, ptr noundef %1, ptr noundef nonnull @ei_spice_common_cap_unknown, ptr noundef %0, i32 noundef %.027.i, i32 noundef 4)
  br label %41

41:                                               ; preds = %39, %.thread25.i, %.thread.i
  %.1.i = add i32 %.027.i, 4
  %42 = add nuw i32 %.02326.i, 1
  %exitcond.not.i = icmp eq i32 %42, %29
  br i1 %exitcond.not.i, label %dissect_spice_common_capabilities.exit, label %.split.i, !llvm.loop !14

dissect_spice_common_capabilities.exit:           ; preds = %41
  %43 = add i32 %32, 194
  br label %44

44:                                               ; preds = %dissect_spice_common_capabilities.exit, %.critedge
  %.0 = phi i32 [ %43, %dissect_spice_common_capabilities.exit ], [ 194, %.critedge ]
  %.not56 = icmp eq i32 %30, 0
  br i1 %.not56, label %49, label %45

45:                                               ; preds = %44
  %46 = shl i32 %30, 2
  %47 = load i32, ptr @ett_link_caps, align 4
  %48 = tail call ptr (ptr, ptr, i32, i32, i32, ptr, ptr, ...) @proto_tree_add_subtree_format(ptr noundef %2, ptr noundef %0, i32 noundef %.0, i32 noundef %46, i32 noundef %47, ptr noundef null, ptr noundef nonnull @.str.752, i32 noundef %46)
  tail call fastcc void @dissect_spice_link_capabilities(ptr noundef %0, ptr noundef %1, ptr noundef %48, i32 noundef %.0, i32 noundef %30, ptr noundef %3)
  br label %49

49:                                               ; preds = %45, %44
  ret void
}